; Function Attrs: nounwind uwtable
define internal fastcc i32 @get_error_values(i32 noundef range(i32 0, 2) %0, i32 noundef range(i32 0, 2) %1, ptr noundef writeonly captures(address_is_null) %2, ptr noundef writeonly captures(address_is_null) %3, ptr noundef writeonly captures(address_is_null) %4, ptr noundef writeonly captures(address_is_null) %5) unnamed_addr #0 {
  %7 = tail call ptr @CRYPTO_get_thread_local(i32 noundef 0) #17
  %8 = icmp eq ptr %7, null
  br i1 %8, label %9, label %err_get_state.exit

9:                                                ; preds = %6
  %calloc.i = tail call dereferenceable_or_null(400) ptr @calloc(i64 1, i64 400)
  %10 = icmp eq ptr %calloc.i, null
  br i1 %10, label %err_get_state.exit.thread, label %11

11:                                               ; preds = %9
  %12 = tail call i32 @CRYPTO_set_thread_local(i32 noundef 0, ptr noundef nonnull %calloc.i, ptr noundef nonnull @err_state_free) #17
  %.not.i = icmp eq i32 %12, 0
  br i1 %.not.i, label %err_get_state.exit.thread, label %err_get_state.exit

err_get_state.exit:                               ; preds = %6, %11
  %.06.i = phi ptr [ %7, %6 ], [ %calloc.i, %11 ]
  %13 = getelementptr inbounds nuw i8, ptr %.06.i, i64 388
  %14 = load i32, ptr %13, align 4, !tbaa !6
  %15 = getelementptr inbounds nuw i8, ptr %.06.i, i64 384
  %16 = load i32, ptr %15, align 8, !tbaa !12
  %17 = icmp eq i32 %14, %16
  br i1 %17, label %err_get_state.exit.thread, label %18

18:                                               ; preds = %err_get_state.exit
  %.not = icmp eq i32 %1, 0
  %19 = add i32 %14, 1
  %20 = and i32 %19, 15
  %.041 = select i1 %.not, i32 %20, i32 %16
  %21 = zext i32 %.041 to i64
  %22 = getelementptr inbounds nuw [16 x %struct.err_error_st], ptr %.06.i, i64 0, i64 %21
  %23 = getelementptr inbounds nuw i8, ptr %22, i64 16
  %24 = load i32, ptr %23, align 8, !tbaa !13
  %25 = icmp ne ptr %2, null
  %26 = icmp ne ptr %3, null
  %or.cond = and i1 %25, %26
  br i1 %or.cond, label %27, label %35

27:                                               ; preds = %18
  %28 = load ptr, ptr %22, align 8, !tbaa !19
  %29 = icmp eq ptr %28, null
  br i1 %29, label %30, label %31

30:                                               ; preds = %27
  store ptr @.str.11, ptr %2, align 8, !tbaa !20
  br label %.sink.split

31:                                               ; preds = %27
  store ptr %28, ptr %2, align 8, !tbaa !20
  %32 = getelementptr inbounds nuw i8, ptr %22, i64 20
  %33 = load i16, ptr %32, align 4, !tbaa !21
  %34 = zext i16 %33 to i32
  br label %.sink.split

.sink.split:                                      ; preds = %31, %30
  %.sink = phi i32 [ 0, %30 ], [ %34, %31 ]
  store i32 %.sink, ptr %3, align 4, !tbaa !22
  br label %35

35:                                               ; preds = %.sink.split, %18
  %.not51 = icmp eq ptr %4, null
  br i1 %.not51, label %57, label %36

36:                                               ; preds = %35
  %37 = getelementptr inbounds nuw i8, ptr %22, i64 8
  %38 = load ptr, ptr %37, align 8, !tbaa !18
  %39 = icmp eq ptr %38, null
  %.not55 = icmp eq ptr %5, null
  br i1 %39, label %40, label %42

40:                                               ; preds = %36
  store ptr @.str.10, ptr %4, align 8, !tbaa !20
  br i1 %.not55, label %57, label %41

41:                                               ; preds = %40
  store i32 0, ptr %5, align 4, !tbaa !22
  br label %57

42:                                               ; preds = %36
  store ptr %38, ptr %4, align 8, !tbaa !20
  br i1 %.not55, label %48, label %43

43:                                               ; preds = %42
  %44 = getelementptr inbounds nuw i8, ptr %22, i64 22
  %45 = load i8, ptr %44, align 2, !tbaa !17
  %46 = and i8 %45, 15
  %47 = zext nneg i8 %46 to i32
  store i32 %47, ptr %5, align 4, !tbaa !22
  br label %48

48:                                               ; preds = %43, %42
  %cond = icmp eq i32 %0, 0
  br i1 %cond, label %err_get_state.exit.thread, label %49

49:                                               ; preds = %48
  %50 = getelementptr inbounds nuw i8, ptr %22, i64 22
  %51 = load i8, ptr %50, align 2, !tbaa !17
  %52 = and i8 %51, 16
  %.not54 = icmp eq i8 %52, 0
  br i1 %.not54, label %err_clear.exit, label %53

53:                                               ; preds = %49
  %54 = getelementptr inbounds nuw i8, ptr %.06.i, i64 392
  %55 = load ptr, ptr %54, align 8, !tbaa !23
  tail call void @free(ptr noundef %55) #17
  %56 = load ptr, ptr %37, align 8, !tbaa !18
  store ptr %56, ptr %54, align 8, !tbaa !23
  br label %err_clear.exit

57:                                               ; preds = %41, %40, %35
  %.not56 = icmp eq i32 %0, 0
  br i1 %.not56, label %err_get_state.exit.thread, label %58

58:                                               ; preds = %57
  %.phi.trans.insert = getelementptr inbounds nuw i8, ptr %22, i64 22
  %.pre = load i8, ptr %.phi.trans.insert, align 2, !tbaa !17
  %59 = and i8 %.pre, 16
  %60 = icmp eq i8 %59, 0
  br i1 %60, label %err_clear.exit, label %61

61:                                               ; preds = %58
  %62 = getelementptr inbounds nuw i8, ptr %22, i64 8
  %63 = load ptr, ptr %62, align 8, !tbaa !18
  tail call void @free(ptr noundef %63) #17
  br label %err_clear.exit

err_clear.exit:                                   ; preds = %49, %53, %58, %61
  tail call void @llvm.memset.p0.i64(ptr noundef nonnull align 8 dereferenceable(24) %22, i8 0, i64 24, i1 false)
  store i32 %.041, ptr %13, align 4, !tbaa !6
  br label %err_get_state.exit.thread

err_get_state.exit.thread:                        ; preds = %11, %9, %48, %57, %err_clear.exit, %err_get_state.exit
  %.0 = phi i32 [ 0, %err_get_state.exit ], [ %24, %48 ], [ %24, %err_clear.exit ], [ %24, %57 ], [ 0, %9 ], [ 0, %11 ]
  ret i32 %.0
}